Certificate:
    Data:
        Version: 3 (0x2)
        Serial Number: 1 (0x1)
    Signature Algorithm: sha256WithRSAEncryption
        Issuer: C=US, ST=Colorado, L=Boulder, O=University of Colorado, OU=Department of Computer Science, CN=Domenic Murtari/emailAddress=domenic.murtari@gmail.com
        Validity
            Not Before: Oct 16 18:40:06 2014 GMT
            Not After : Oct 16 18:40:06 2015 GMT
        Subject: C=US, ST=Colorado, O=University of Colorado, OU=Department of Computer Science, CN=Domenic Murtari/emailAddress=domenic.murtari@gmail.com
        Subject Public Key Info:
            Public Key Algorithm: rsaEncryption
                Public-Key: (2048 bit)
                Modulus:
                    00:bc:b9:bd:fc:71:22:4e:5d:30:2d:f2:29:e5:88:
                    d6:6a:94:59:9b:77:4f:11:1c:f1:4a:a0:c8:4f:af:
                    8f:bd:b8:73:64:67:39:72:ab:c7:47:44:6c:99:5b:
                    1c:0b:df:d0:8d:91:c2:49:a8:ea:b7:f1:cf:1f:16:
                    b5:fb:e7:e6:3d:76:aa:11:19:ea:76:c0:3c:96:61:
                    9b:c6:c4:b0:2c:11:ea:c2:88:c6:11:f3:60:06:b2:
                    d6:08:fa:c7:81:4e:9a:a7:57:76:da:76:3a:83:a3:
                    66:90:b7:d6:82:c5:73:8a:c8:e2:d0:c6:98:da:5f:
                    70:5e:17:c6:86:39:41:f9:61:9d:f7:df:cd:f4:be:
                    2b:04:19:e8:1e:97:4a:3f:a5:6d:a0:31:b1:74:69:
                    0d:8b:28:59:70:ab:23:14:13:f8:35:44:5b:ac:32:
                    64:b0:29:cd:f5:1f:d3:23:13:6f:b6:c2:14:88:28:
                    dc:08:47:24:79:1f:76:2c:ab:44:45:c1:47:c0:79:
                    7a:01:06:ad:fa:5b:17:76:f5:b4:68:68:aa:8f:2d:
                    85:9a:fd:77:04:1d:cd:17:29:ec:11:fc:1f:c5:c0:
                    97:76:c7:80:e3:97:69:4a:48:95:ef:5f:9d:7b:f4:
                    15:ad:3d:8b:52:40:9f:5a:64:b5:1f:b1:a6:d5:3e:
                    35:1d
                Exponent: 65537 (0x10001)
        X509v3 extensions:
            X509v3 Basic Constraints: 
                CA:FALSE
            Netscape Comment: 
                OpenSSL Generated Certificate
            X509v3 Subject Key Identifier: 
                35:9E:F4:30:69:70:06:3A:30:1A:C9:D1:19:95:66:E7:A7:CE:6A:CA
            X509v3 Authority Key Identifier: 
                keyid:AA:BB:8F:33:6E:50:E6:A1:11:24:DD:96:65:30:2F:00:02:90:52:B4

    Signature Algorithm: sha256WithRSAEncryption
         7a:b1:86:fe:9c:e7:cf:d9:d9:ae:73:6b:dc:ec:b1:eb:e6:59:
         24:6b:b8:da:e9:2e:6f:e8:87:66:fc:f0:aa:26:9c:05:64:f1:
         96:ff:c3:4e:07:30:18:01:71:c7:65:c7:24:aa:0c:91:37:ee:
         2f:bc:26:58:ad:3b:e4:1c:2d:5b:6b:8c:6b:26:22:e8:12:50:
         24:b8:9c:61:1a:1f:5d:b2:a2:8d:e1:1b:5e:f0:92:06:b9:1f:
         8e:fc:db:1b:1e:2a:d3:c1:b0:61:83:c8:59:64:02:01:80:67:
         8d:97:9c:a3:c3:25:52:ab:92:9c:c1:17:86:10:8b:73:90:6e:
         b4:5c:cb:44:15:27:a8:7d:93:9a:15:9f:ed:ed:a5:25:f3:2c:
         0c:42:fe:67:dc:8c:0d:1e:1b:78:df:4b:77:86:c1:84:d4:af:
         2c:08:65:ba:fe:83:8f:dd:fd:2e:51:d7:da:08:52:47:cf:0a:
         09:dd:63:90:4f:6f:77:8e:28:ea:1f:80:31:13:42:59:a6:ae:
         89:04:24:a8:b1:92:1b:8f:f5:0e:cc:eb:f5:20:4f:fe:97:17:
         70:d7:44:34:32:a9:b7:c5:1d:8e:23:3d:1b:6d:1a:25:8e:e7:
         3c:37:f8:10:db:f9:c1:25:62:36:42:81:5e:ef:13:16:85:31:
         16:4d:10:82
-----BEGIN CERTIFICATE-----
MIIEZjCCA06gAwIBAgIBATANBgkqhkiG9w0BAQsFADCBwDELMAkGA1UEBhMCVVMx
ETAPBgNVBAgMCENvbG9yYWRvMRAwDgYDVQQHDAdCb3VsZGVyMR8wHQYDVQQKDBZV
bml2ZXJzaXR5IG9mIENvbG9yYWRvMScwJQYDVQQLDB5EZXBhcnRtZW50IG9mIENv
bXB1dGVyIFNjaWVuY2UxGDAWBgNVBAMMD0RvbWVuaWMgTXVydGFyaTEoMCYGCSqG
SIb3DQEJARYZZG9tZW5pYy5tdXJ0YXJpQGdtYWlsLmNvbTAeFw0xNDEwMTYxODQw
MDZaFw0xNTEwMTYxODQwMDZaMIGuMQswCQYDVQQGEwJVUzERMA8GA1UECAwIQ29s
b3JhZG8xHzAdBgNVBAoMFlVuaXZlcnNpdHkgb2YgQ29sb3JhZG8xJzAlBgNVBAsM
HkRlcGFydG1lbnQgb2YgQ29tcHV0ZXIgU2NpZW5jZTEYMBYGA1UEAwwPRG9tZW5p
YyBNdXJ0YXJpMSgwJgYJKoZIhvcNAQkBFhlkb21lbmljLm11cnRhcmlAZ21haWwu
Y29tMIIBIjANBgkqhkiG9w0BAQEFAAOCAQ8AMIIBCgKCAQEAvLm9/HEiTl0wLfIp
5YjWapRZm3dPERzxSqDIT6+PvbhzZGc5cqvHR0RsmVscC9/QjZHCSajqt/HPHxa1
++fmPXaqERnqdsA8lmGbxsSwLBHqwojGEfNgBrLWCPrHgU6ap1d22nY6g6NmkLfW
gsVzisji0MaY2l9wXhfGhjlB+WGd99/N9L4rBBnoHpdKP6VtoDGxdGkNiyhZcKsj
FBP4NURbrDJksCnN9R/TIxNvtsIUiCjcCEckeR92LKtERcFHwHl6AQat+lsXdvW0
aGiqjy2Fmv13BB3NFynsEfwfxcCXdseA45dpSkiV71+de/QVrT2LUkCfWmS1H7Gm
1T41HQIDAQABo3sweTAJBgNVHRMEAjAAMCwGCWCGSAGG+EIBDQQfFh1PcGVuU1NM
IEdlbmVyYXRlZCBDZXJ0aWZpY2F0ZTAdBgNVHQ4EFgQUNZ70MGlwBjowGsnRGZVm
56fOasowHwYDVR0jBBgwFoAUqruPM25Q5qERJN2WZTAvAAKQUrQwDQYJKoZIhvcN
AQELBQADggEBAHqxhv6c58/Z2a5za9zssevmWSRruNrpLm/oh2b88KomnAVk8Zb/
w04HMBgBccdlxySqDJE37i+8JlitO+QcLVtrjGsmIugSUCS4nGEaH12yoo3hG17w
kga5H4782xseKtPBsGGDyFlkAgGAZ42XnKPDJVKrkpzBF4YQi3OQbrRcy0QVJ6h9
k5oVn+3tpSXzLAxC/mfcjA0eG3jfS3eGwYTUrywIZbr+g4/d/S5R19oIUkfPCgnd
Y5BPb3eOKOofgDETQlmmrokEJKixkhuP9Q7M6/UgT/6XF3DXRDQyqbfFHY4jPRtt
GiWO5zw3+BDb+cElYjZCgV7vExaFMRZNEII=
-----END CERTIFICATE-----
